{
   <insert_a_suppression_name_here>
   Memcheck:Cond
   fun:_gfortran_string_len_trim
   fun:_gfortrani_set_internal_unit
   fun:_gfortrani_get_unit
   fun:data_transfer_init
   fun:read_re2_hdr_
   fun:nekf_setup_
   fun:_Z9nek_setupP19ompi_communicator_tR9setupAideP5nrs_t
   fun:_Z8nrsSetupP19ompi_communicator_tN4occa6deviceER9setupAidei
   fun:_ZN5nekrs5setupEP19ompi_communicator_tiiiNSt7__cxx1112basic_stringIcSt11char_traitsIcESaIcEEES7_S7_S7_
   fun:main
}
{
   <insert_a_suppression_name_here>
   Memcheck:Cond
   fun:ompi_fortran_string_f2c
   fun:PMPI_FILE_OPEN
   fun:byte_open_mpi_
   fun:read_re2_data_
   fun:set_proc_map_
   fun:mapelpr_
   fun:nekf_setup_
   fun:_Z9nek_setupP19ompi_communicator_tR9setupAideP5nrs_t
   fun:_Z8nrsSetupP19ompi_communicator_tN4occa6deviceER9setupAidei
   fun:_ZN5nekrs5setupEP19ompi_communicator_tiiiNSt7__cxx1112basic_stringIcSt11char_traitsIcESaIcEEES7_S7_S7_
   fun:main
}
{
   <insert_a_suppression_name_here>
   Memcheck:Cond
   fun:findLocalSegments
   fun:findSegments
   fun:parRSB_findConnectivity
   fun:fparrsb_findconnectivity_
   fun:find_con_
   fun:get_con_
   fun:get_vert_map_
   fun:get_vert_
   fun:set_proc_map_
   fun:mapelpr_
   fun:nekf_setup_
   fun:_Z9nek_setupP19ompi_communicator_tR9setupAideP5nrs_t
}
{
   <insert_a_suppression_name_here>
   Memcheck:Cond
   fun:_ZN4oogs5startEN4occa6memoryEiiPKcS3_P6oogs_t
   fun:_ZN4oogs11startFinishEN4occa6memoryEiiPKcS3_P6oogs_t
   fun:_Z16ellipticOperatorP10elliptic_tRN4occa6memoryES3_PKc
   fun:_ZN7MGLevel14maxEigSmoothAxEv
   fun:_ZN7MGLevel13setupSmootherEP10elliptic_t
   fun:_ZN7MGLevelC1EP10elliptic_tdi9setupAideN9parAlmond10KrylovTypeEP19ompi_communicator_t
   fun:_Z22ellipticMultiGridSetupP10elliptic_tP8precon_t
   fun:_Z27ellipticPreconditionerSetupP10elliptic_tP5ogs_tRN4occa10propertiesE
   fun:_Z18ellipticSolveSetupP10elliptic_tN4occa10propertiesE
   fun:_Z8nrsSetupP19ompi_communicator_tN4occa6deviceER9setupAidei
   fun:_ZN5nekrs5setupEP19ompi_communicator_tiiiNSt7__cxx1112basic_stringIcSt11char_traitsIcESaIcEEES7_S7_S7_
   fun:main
}
{
   <insert_a_suppression_name_here>
   Memcheck:Cond
   fun:_ZN4oogs6finishEN4occa6memoryEiiPKcS3_P6oogs_t
   fun:_ZN4oogs11startFinishEN4occa6memoryEiiPKcS3_P6oogs_t
   fun:_Z16ellipticOperatorP10elliptic_tRN4occa6memoryES3_PKc
   fun:_ZN7MGLevel14maxEigSmoothAxEv
   fun:_ZN7MGLevel13setupSmootherEP10elliptic_t
   fun:_ZN7MGLevelC1EP10elliptic_tdi9setupAideN9parAlmond10KrylovTypeEP19ompi_communicator_t
   fun:_Z22ellipticMultiGridSetupP10elliptic_tP8precon_t
   fun:_Z27ellipticPreconditionerSetupP10elliptic_tP5ogs_tRN4occa10propertiesE
   fun:_Z18ellipticSolveSetupP10elliptic_tN4occa10propertiesE
   fun:_Z8nrsSetupP19ompi_communicator_tN4occa6deviceER9setupAidei
   fun:_ZN5nekrs5setupEP19ompi_communicator_tiiiNSt7__cxx1112basic_stringIcSt11char_traitsIcESaIcEEES7_S7_S7_
   fun:main
}
{
   <insert_a_suppression_name_here>
   Memcheck:Cond
   fun:_ZN4oogs5startEN4occa6memoryEiiPKcS3_P6oogs_t
   fun:_ZN4oogs11startFinishEN4occa6memoryEiiPKcS3_P6oogs_t
   fun:_ZN7MGLevel13smoothSchwarzERN4occa6memoryES2_b
   fun:_ZN7MGLevel14maxEigSmoothAxEv
   fun:_ZN7MGLevel13setupSmootherEP10elliptic_t
   fun:_ZN7MGLevelC1EP10elliptic_tdi9setupAideN9parAlmond10KrylovTypeEP19ompi_communicator_t
   fun:_Z22ellipticMultiGridSetupP10elliptic_tP8precon_t
   fun:_Z27ellipticPreconditionerSetupP10elliptic_tP5ogs_tRN4occa10propertiesE
   fun:_Z18ellipticSolveSetupP10elliptic_tN4occa10propertiesE
   fun:_Z8nrsSetupP19ompi_communicator_tN4occa6deviceER9setupAidei
   fun:_ZN5nekrs5setupEP19ompi_communicator_tiiiNSt7__cxx1112basic_stringIcSt11char_traitsIcESaIcEEES7_S7_S7_
   fun:main
}
{
   <insert_a_suppression_name_here>
   Memcheck:Cond
   fun:_ZN4oogs6finishEN4occa6memoryEiiPKcS3_P6oogs_t
   fun:_ZN4oogs11startFinishEN4occa6memoryEiiPKcS3_P6oogs_t
   fun:_ZN7MGLevel13smoothSchwarzERN4occa6memoryES2_b
   fun:_ZN7MGLevel14maxEigSmoothAxEv
   fun:_ZN7MGLevel13setupSmootherEP10elliptic_t
   fun:_ZN7MGLevelC1EP10elliptic_tdi9setupAideN9parAlmond10KrylovTypeEP19ompi_communicator_t
   fun:_Z22ellipticMultiGridSetupP10elliptic_tP8precon_t
   fun:_Z27ellipticPreconditionerSetupP10elliptic_tP5ogs_tRN4occa10propertiesE
   fun:_Z18ellipticSolveSetupP10elliptic_tN4occa10propertiesE
   fun:_Z8nrsSetupP19ompi_communicator_tN4occa6deviceER9setupAidei
   fun:_ZN5nekrs5setupEP19ompi_communicator_tiiiNSt7__cxx1112basic_stringIcSt11char_traitsIcESaIcEEES7_S7_S7_
   fun:main
}
{
   <insert_a_suppression_name_here>
   Memcheck:Cond
   fun:_ZN4oogs5startEN4occa6memoryEiiPKcS3_P6oogs_t
   fun:_ZN7MGLevel13smoothSchwarzERN4occa6memoryES2_b
   fun:_ZN7MGLevel14maxEigSmoothAxEv
   fun:_ZN7MGLevel13setupSmootherEP10elliptic_t
   fun:_ZN7MGLevelC1EP10elliptic_tdi9setupAideN9parAlmond10KrylovTypeEP19ompi_communicator_t
   fun:_Z22ellipticMultiGridSetupP10elliptic_tP8precon_t
   fun:_Z27ellipticPreconditionerSetupP10elliptic_tP5ogs_tRN4occa10propertiesE
   fun:_Z18ellipticSolveSetupP10elliptic_tN4occa10propertiesE
   fun:_Z8nrsSetupP19ompi_communicator_tN4occa6deviceER9setupAidei
   fun:_ZN5nekrs5setupEP19ompi_communicator_tiiiNSt7__cxx1112basic_stringIcSt11char_traitsIcESaIcEEES7_S7_S7_
   fun:main
}
{
   <insert_a_suppression_name_here>
   Memcheck:Cond
   fun:_ZN4oogs6finishEN4occa6memoryEiiPKcS3_P6oogs_t
   fun:_ZN7MGLevel13smoothSchwarzERN4occa6memoryES2_b
   fun:_ZN7MGLevel14maxEigSmoothAxEv
   fun:_ZN7MGLevel13setupSmootherEP10elliptic_t
   fun:_ZN7MGLevelC1EP10elliptic_tdi9setupAideN9parAlmond10KrylovTypeEP19ompi_communicator_t
   fun:_Z22ellipticMultiGridSetupP10elliptic_tP8precon_t
   fun:_Z27ellipticPreconditionerSetupP10elliptic_tP5ogs_tRN4occa10propertiesE
   fun:_Z18ellipticSolveSetupP10elliptic_tN4occa10propertiesE
   fun:_Z8nrsSetupP19ompi_communicator_tN4occa6deviceER9setupAidei
   fun:_ZN5nekrs5setupEP19ompi_communicator_tiiiNSt7__cxx1112basic_stringIcSt11char_traitsIcESaIcEEES7_S7_S7_
   fun:main
}
{
   <insert_a_suppression_name_here>
   Memcheck:Cond
   fun:_ZN4oogs5startEN4occa6memoryEiiPKcS3_P6oogs_t
   fun:_ZN4oogs11startFinishEN4occa6memoryEiiPKcS3_P6oogs_t
   fun:_Z8cdsSolveiP5cds_td
   fun:_Z11scalarSolveP5nrs_tdN4occa6memoryE
   fun:_Z7runStepP5nrs_tddi
   fun:main
}
{
   <insert_a_suppression_name_here>
   Memcheck:Cond
   fun:_ZN4oogs6finishEN4occa6memoryEiiPKcS3_P6oogs_t
   fun:_ZN4oogs11startFinishEN4occa6memoryEiiPKcS3_P6oogs_t
   fun:_Z8cdsSolveiP5cds_td
   fun:_Z11scalarSolveP5nrs_tdN4occa6memoryE
   fun:_Z7runStepP5nrs_tddi
   fun:main
}
{
   <insert_a_suppression_name_here>
   Memcheck:Cond
   fun:_ZN4oogs5startEN4occa6memoryEiiPKcS3_P6oogs_t
   fun:_ZN4oogs11startFinishEN4occa6memoryEiiPKcS3_P6oogs_t
   fun:_Z20ellipticUpdateJacobiP10elliptic_t
   fun:_Z13ellipticSolveP10elliptic_tRN4occa6memoryES3_
   fun:_Z8cdsSolveiP5cds_td
   fun:_Z11scalarSolveP5nrs_tdN4occa6memoryE
   fun:_Z7runStepP5nrs_tddi
   fun:main
}
{
   <insert_a_suppression_name_here>
   Memcheck:Cond
   fun:_ZN4oogs6finishEN4occa6memoryEiiPKcS3_P6oogs_t
   fun:_ZN4oogs11startFinishEN4occa6memoryEiiPKcS3_P6oogs_t
   fun:_Z20ellipticUpdateJacobiP10elliptic_t
   fun:_Z13ellipticSolveP10elliptic_tRN4occa6memoryES3_
   fun:_Z8cdsSolveiP5cds_td
   fun:_Z11scalarSolveP5nrs_tdN4occa6memoryE
   fun:_Z7runStepP5nrs_tddi
   fun:main
}
{
   <insert_a_suppression_name_here>
   Memcheck:Cond
   fun:_ZN4oogs5startEN4occa6memoryEiiPKcS3_P6oogs_t
   fun:_ZN4oogs11startFinishEN4occa6memoryEiiPKcS3_P6oogs_t
   fun:_Z16ellipticOperatorP10elliptic_tRN4occa6memoryES3_PKc
   fun:_Z13ellipticSolveP10elliptic_tRN4occa6memoryES3_
   fun:_Z8cdsSolveiP5cds_td
   fun:_Z11scalarSolveP5nrs_tdN4occa6memoryE
   fun:_Z7runStepP5nrs_tddi
   fun:main
}
{
   <insert_a_suppression_name_here>
   Memcheck:Cond
   fun:_ZN4oogs6finishEN4occa6memoryEiiPKcS3_P6oogs_t
   fun:_ZN4oogs11startFinishEN4occa6memoryEiiPKcS3_P6oogs_t
   fun:_Z16ellipticOperatorP10elliptic_tRN4occa6memoryES3_PKc
   fun:_Z13ellipticSolveP10elliptic_tRN4occa6memoryES3_
   fun:_Z8cdsSolveiP5cds_td
   fun:_Z11scalarSolveP5nrs_tdN4occa6memoryE
   fun:_Z7runStepP5nrs_tddi
   fun:main
}
{
   <insert_a_suppression_name_here>
   Memcheck:Cond
   fun:_ZN4oogs5startEN4occa6memoryEiiPKcS3_P6oogs_t
   fun:_ZN4oogs11startFinishEN4occa6memoryEiiPKcS3_P6oogs_t
   fun:_Z16ellipticOperatorP10elliptic_tRN4occa6memoryES3_PKc
   fun:_Z3pcgP10elliptic_tRN4occa6memoryES3_di
   fun:_Z13ellipticSolveP10elliptic_tRN4occa6memoryES3_
   fun:_Z8cdsSolveiP5cds_td
   fun:_Z11scalarSolveP5nrs_tdN4occa6memoryE
   fun:_Z7runStepP5nrs_tddi
   fun:main
}
{
   <insert_a_suppression_name_here>
   Memcheck:Cond
   fun:_ZN4oogs6finishEN4occa6memoryEiiPKcS3_P6oogs_t
   fun:_ZN4oogs11startFinishEN4occa6memoryEiiPKcS3_P6oogs_t
   fun:_Z16ellipticOperatorP10elliptic_tRN4occa6memoryES3_PKc
   fun:_Z3pcgP10elliptic_tRN4occa6memoryES3_di
   fun:_Z13ellipticSolveP10elliptic_tRN4occa6memoryES3_
   fun:_Z8cdsSolveiP5cds_td
   fun:_Z11scalarSolveP5nrs_tdN4occa6memoryE
   fun:_Z7runStepP5nrs_tddi
   fun:main
}
{
   <insert_a_suppression_name_here>
   Memcheck:Cond
   fun:_ZN4oogs5startEN4occa6memoryEiiPKcS3_P6oogs_t
   fun:_ZN4oogs11startFinishEN4occa6memoryEiiPKcS3_P6oogs_t
   fun:_ZN5tombo13pressureSolveEP5nrs_td
   fun:_Z10fluidSolveP5nrs_tdN4occa6memoryE
   fun:_Z7runStepP5nrs_tddi
   fun:main
}
{
   <insert_a_suppression_name_here>
   Memcheck:Cond
   fun:_ZN4oogs6finishEN4occa6memoryEiiPKcS3_P6oogs_t
   fun:_ZN4oogs11startFinishEN4occa6memoryEiiPKcS3_P6oogs_t
   fun:_ZN5tombo13pressureSolveEP5nrs_td
   fun:_Z10fluidSolveP5nrs_tdN4occa6memoryE
   fun:_Z7runStepP5nrs_tddi
   fun:main
}
{
   <insert_a_suppression_name_here>
   Memcheck:Cond
   fun:_ZN4oogs5startEN4occa6memoryEiiPKcS3_P6oogs_t
   fun:_ZN4oogs11startFinishEN4occa6memoryEiiPKcS3_P6oogs_t
   fun:_ZN7MGLevel13smoothSchwarzERN4occa6memoryES2_b
   fun:_ZN7MGLevel27smoothChebyshevOneIterationERN4occa6memoryES2_b
   fun:_ZN7MGLevel15smoothChebyshevERN4occa6memoryES2_b
   fun:_ZN7MGLevel6smoothEN4occa6memoryES1_b
   fun:_ZN9parAlmond8solver_t13device_vcycleEi
   fun:_Z22ellipticPreconditionerP10elliptic_tRN4occa6memoryES3_
   fun:_Z3pcgP10elliptic_tRN4occa6memoryES3_di
   fun:_Z13ellipticSolveP10elliptic_tRN4occa6memoryES3_
   fun:_ZN5tombo13pressureSolveEP5nrs_td
   fun:_Z10fluidSolveP5nrs_tdN4occa6memoryE
}
{
   <insert_a_suppression_name_here>
   Memcheck:Cond
   fun:_ZN4oogs6finishEN4occa6memoryEiiPKcS3_P6oogs_t
   fun:_ZN4oogs11startFinishEN4occa6memoryEiiPKcS3_P6oogs_t
   fun:_ZN7MGLevel13smoothSchwarzERN4occa6memoryES2_b
   fun:_ZN7MGLevel27smoothChebyshevOneIterationERN4occa6memoryES2_b
   fun:_ZN7MGLevel15smoothChebyshevERN4occa6memoryES2_b
   fun:_ZN7MGLevel6smoothEN4occa6memoryES1_b
   fun:_ZN9parAlmond8solver_t13device_vcycleEi
   fun:_Z22ellipticPreconditionerP10elliptic_tRN4occa6memoryES3_
   fun:_Z3pcgP10elliptic_tRN4occa6memoryES3_di
   fun:_Z13ellipticSolveP10elliptic_tRN4occa6memoryES3_
   fun:_ZN5tombo13pressureSolveEP5nrs_td
   fun:_Z10fluidSolveP5nrs_tdN4occa6memoryE
}
{
   <insert_a_suppression_name_here>
   Memcheck:Cond
   fun:_ZN4oogs5startEN4occa6memoryEiiPKcS3_P6oogs_t
   fun:_ZN7MGLevel13smoothSchwarzERN4occa6memoryES2_b
   fun:_ZN7MGLevel27smoothChebyshevOneIterationERN4occa6memoryES2_b
   fun:_ZN7MGLevel15smoothChebyshevERN4occa6memoryES2_b
   fun:_ZN7MGLevel6smoothEN4occa6memoryES1_b
   fun:_ZN9parAlmond8solver_t13device_vcycleEi
   fun:_Z22ellipticPreconditionerP10elliptic_tRN4occa6memoryES3_
   fun:_Z3pcgP10elliptic_tRN4occa6memoryES3_di
   fun:_Z13ellipticSolveP10elliptic_tRN4occa6memoryES3_
   fun:_ZN5tombo13pressureSolveEP5nrs_td
   fun:_Z10fluidSolveP5nrs_tdN4occa6memoryE
   fun:_Z7runStepP5nrs_tddi
}
{
   <insert_a_suppression_name_here>
   Memcheck:Cond
   fun:_ZN4oogs6finishEN4occa6memoryEiiPKcS3_P6oogs_t
   fun:_ZN7MGLevel13smoothSchwarzERN4occa6memoryES2_b
   fun:_ZN7MGLevel27smoothChebyshevOneIterationERN4occa6memoryES2_b
   fun:_ZN7MGLevel15smoothChebyshevERN4occa6memoryES2_b
   fun:_ZN7MGLevel6smoothEN4occa6memoryES1_b
   fun:_ZN9parAlmond8solver_t13device_vcycleEi
   fun:_Z22ellipticPreconditionerP10elliptic_tRN4occa6memoryES3_
   fun:_Z3pcgP10elliptic_tRN4occa6memoryES3_di
   fun:_Z13ellipticSolveP10elliptic_tRN4occa6memoryES3_
   fun:_ZN5tombo13pressureSolveEP5nrs_td
   fun:_Z10fluidSolveP5nrs_tdN4occa6memoryE
   fun:_Z7runStepP5nrs_tddi
}
{
   <insert_a_suppression_name_here>
   Memcheck:Cond
   fun:_ZN4oogs5startEN4occa6memoryEiiPKcS3_P6oogs_t
   fun:_ZN4oogs11startFinishEN4occa6memoryEiiPKcS3_P6oogs_t
   fun:_Z16ellipticOperatorP10elliptic_tRN4occa6memoryES3_PKc
   fun:_ZN7MGLevel27smoothChebyshevOneIterationERN4occa6memoryES2_b
   fun:_ZN7MGLevel15smoothChebyshevERN4occa6memoryES2_b
   fun:_ZN7MGLevel6smoothEN4occa6memoryES1_b
   fun:_ZN9parAlmond8solver_t13device_vcycleEi
   fun:_Z22ellipticPreconditionerP10elliptic_tRN4occa6memoryES3_
   fun:_Z3pcgP10elliptic_tRN4occa6memoryES3_di
   fun:_Z13ellipticSolveP10elliptic_tRN4occa6memoryES3_
   fun:_ZN5tombo13pressureSolveEP5nrs_td
   fun:_Z10fluidSolveP5nrs_tdN4occa6memoryE
}
{
   <insert_a_suppression_name_here>
   Memcheck:Cond
   fun:_ZN4oogs6finishEN4occa6memoryEiiPKcS3_P6oogs_t
   fun:_ZN4oogs11startFinishEN4occa6memoryEiiPKcS3_P6oogs_t
   fun:_Z16ellipticOperatorP10elliptic_tRN4occa6memoryES3_PKc
   fun:_ZN7MGLevel27smoothChebyshevOneIterationERN4occa6memoryES2_b
   fun:_ZN7MGLevel15smoothChebyshevERN4occa6memoryES2_b
   fun:_ZN7MGLevel6smoothEN4occa6memoryES1_b
   fun:_ZN9parAlmond8solver_t13device_vcycleEi
   fun:_Z22ellipticPreconditionerP10elliptic_tRN4occa6memoryES3_
   fun:_Z3pcgP10elliptic_tRN4occa6memoryES3_di
   fun:_Z13ellipticSolveP10elliptic_tRN4occa6memoryES3_
   fun:_ZN5tombo13pressureSolveEP5nrs_td
   fun:_Z10fluidSolveP5nrs_tdN4occa6memoryE
}
{
   <insert_a_suppression_name_here>
   Memcheck:Cond
   fun:_ZN4oogs5startEN4occa6memoryEiiPKcS3_P6oogs_t
   fun:_ZN4oogs11startFinishEN4occa6memoryEiiPKcS3_P6oogs_t
   fun:_Z16ellipticOperatorP10elliptic_tRN4occa6memoryES3_PKc
   fun:_ZN7MGLevel8residualEN4occa6memoryES1_S1_
   fun:_ZN9parAlmond8solver_t13device_vcycleEi
   fun:_Z22ellipticPreconditionerP10elliptic_tRN4occa6memoryES3_
   fun:_Z3pcgP10elliptic_tRN4occa6memoryES3_di
   fun:_Z13ellipticSolveP10elliptic_tRN4occa6memoryES3_
   fun:_ZN5tombo13pressureSolveEP5nrs_td
   fun:_Z10fluidSolveP5nrs_tdN4occa6memoryE
   fun:_Z7runStepP5nrs_tddi
   fun:main
}
{
   <insert_a_suppression_name_here>
   Memcheck:Cond
   fun:_ZN4oogs6finishEN4occa6memoryEiiPKcS3_P6oogs_t
   fun:_ZN4oogs11startFinishEN4occa6memoryEiiPKcS3_P6oogs_t
   fun:_Z16ellipticOperatorP10elliptic_tRN4occa6memoryES3_PKc
   fun:_ZN7MGLevel8residualEN4occa6memoryES1_S1_
   fun:_ZN9parAlmond8solver_t13device_vcycleEi
   fun:_Z22ellipticPreconditionerP10elliptic_tRN4occa6memoryES3_
   fun:_Z3pcgP10elliptic_tRN4occa6memoryES3_di
   fun:_Z13ellipticSolveP10elliptic_tRN4occa6memoryES3_
   fun:_ZN5tombo13pressureSolveEP5nrs_td
   fun:_Z10fluidSolveP5nrs_tdN4occa6memoryE
   fun:_Z7runStepP5nrs_tddi
   fun:main
}
{
   <insert_a_suppression_name_here>
   Memcheck:Cond
   fun:_ZN4oogs5startEN4occa6memoryEiiPKcS3_P6oogs_t
   fun:_ZN4oogs11startFinishEN4occa6memoryEiiPKcS3_P6oogs_t
   fun:_ZN7MGLevel7coarsenEN4occa6memoryES1_
   fun:_ZN9parAlmond8solver_t13device_vcycleEi
   fun:_Z22ellipticPreconditionerP10elliptic_tRN4occa6memoryES3_
   fun:_Z3pcgP10elliptic_tRN4occa6memoryES3_di
   fun:_Z13ellipticSolveP10elliptic_tRN4occa6memoryES3_
   fun:_ZN5tombo13pressureSolveEP5nrs_td
   fun:_Z10fluidSolveP5nrs_tdN4occa6memoryE
   fun:_Z7runStepP5nrs_tddi
   fun:main
}
{
   <insert_a_suppression_name_here>
   Memcheck:Cond
   fun:_ZN4oogs6finishEN4occa6memoryEiiPKcS3_P6oogs_t
   fun:_ZN4oogs11startFinishEN4occa6memoryEiiPKcS3_P6oogs_t
   fun:_ZN7MGLevel7coarsenEN4occa6memoryES1_
   fun:_ZN9parAlmond8solver_t13device_vcycleEi
   fun:_Z22ellipticPreconditionerP10elliptic_tRN4occa6memoryES3_
   fun:_Z3pcgP10elliptic_tRN4occa6memoryES3_di
   fun:_Z13ellipticSolveP10elliptic_tRN4occa6memoryES3_
   fun:_ZN5tombo13pressureSolveEP5nrs_td
   fun:_Z10fluidSolveP5nrs_tdN4occa6memoryE
   fun:_Z7runStepP5nrs_tddi
   fun:main
}
{
   <insert_a_suppression_name_here>
   Memcheck:Cond
   fun:_ZN4oogs5startEN4occa6memoryEiiPKcS3_P6oogs_t
   fun:_ZN4oogs11startFinishEN4occa6memoryEiiPKcS3_P6oogs_t
   fun:_Z16ellipticOperatorP10elliptic_tRN4occa6memoryES3_PKc
   fun:_ZN7MGLevel27smoothChebyshevOneIterationERN4occa6memoryES2_b
   fun:_ZN7MGLevel15smoothChebyshevERN4occa6memoryES2_b
   fun:_ZN7MGLevel6smoothEN4occa6memoryES1_b
   fun:_ZN9parAlmond8solver_t13device_vcycleEi
   fun:_ZN9parAlmond8solver_t13device_vcycleEi
   fun:_Z22ellipticPreconditionerP10elliptic_tRN4occa6memoryES3_
   fun:_Z3pcgP10elliptic_tRN4occa6memoryES3_di
   fun:_Z13ellipticSolveP10elliptic_tRN4occa6memoryES3_
   fun:_ZN5tombo13pressureSolveEP5nrs_td
}
{
   <insert_a_suppression_name_here>
   Memcheck:Cond
   fun:_ZN4oogs6finishEN4occa6memoryEiiPKcS3_P6oogs_t
   fun:_ZN4oogs11startFinishEN4occa6memoryEiiPKcS3_P6oogs_t
   fun:_Z16ellipticOperatorP10elliptic_tRN4occa6memoryES3_PKc
   fun:_ZN7MGLevel27smoothChebyshevOneIterationERN4occa6memoryES2_b
   fun:_ZN7MGLevel15smoothChebyshevERN4occa6memoryES2_b
   fun:_ZN7MGLevel6smoothEN4occa6memoryES1_b
   fun:_ZN9parAlmond8solver_t13device_vcycleEi
   fun:_ZN9parAlmond8solver_t13device_vcycleEi
   fun:_Z22ellipticPreconditionerP10elliptic_tRN4occa6memoryES3_
   fun:_Z3pcgP10elliptic_tRN4occa6memoryES3_di
   fun:_Z13ellipticSolveP10elliptic_tRN4occa6memoryES3_
   fun:_ZN5tombo13pressureSolveEP5nrs_td
}
{
   <insert_a_suppression_name_here>
   Memcheck:Cond
   fun:_ZN4oogs5startEN4occa6memoryEiiPKcS3_P6oogs_t
   fun:_ZN4oogs11startFinishEN4occa6memoryEiiPKcS3_P6oogs_t
   fun:_ZN7MGLevel13smoothSchwarzERN4occa6memoryES2_b
   fun:_ZN7MGLevel27smoothChebyshevOneIterationERN4occa6memoryES2_b
   fun:_ZN7MGLevel15smoothChebyshevERN4occa6memoryES2_b
   fun:_ZN7MGLevel6smoothEN4occa6memoryES1_b
   fun:_ZN9parAlmond8solver_t13device_vcycleEi
   fun:_ZN9parAlmond8solver_t13device_vcycleEi
   fun:_Z22ellipticPreconditionerP10elliptic_tRN4occa6memoryES3_
   fun:_Z3pcgP10elliptic_tRN4occa6memoryES3_di
   fun:_Z13ellipticSolveP10elliptic_tRN4occa6memoryES3_
   fun:_ZN5tombo13pressureSolveEP5nrs_td
}
{
   <insert_a_suppression_name_here>
   Memcheck:Cond
   fun:_ZN4oogs6finishEN4occa6memoryEiiPKcS3_P6oogs_t
   fun:_ZN4oogs11startFinishEN4occa6memoryEiiPKcS3_P6oogs_t
   fun:_ZN7MGLevel13smoothSchwarzERN4occa6memoryES2_b
   fun:_ZN7MGLevel27smoothChebyshevOneIterationERN4occa6memoryES2_b
   fun:_ZN7MGLevel15smoothChebyshevERN4occa6memoryES2_b
   fun:_ZN7MGLevel6smoothEN4occa6memoryES1_b
   fun:_ZN9parAlmond8solver_t13device_vcycleEi
   fun:_ZN9parAlmond8solver_t13device_vcycleEi
   fun:_Z22ellipticPreconditionerP10elliptic_tRN4occa6memoryES3_
   fun:_Z3pcgP10elliptic_tRN4occa6memoryES3_di
   fun:_Z13ellipticSolveP10elliptic_tRN4occa6memoryES3_
   fun:_ZN5tombo13pressureSolveEP5nrs_td
}
{
   <insert_a_suppression_name_here>
   Memcheck:Cond
   fun:_ZN4oogs5startEN4occa6memoryEiiPKcS3_P6oogs_t
   fun:_ZN7MGLevel13smoothSchwarzERN4occa6memoryES2_b
   fun:_ZN7MGLevel27smoothChebyshevOneIterationERN4occa6memoryES2_b
   fun:_ZN7MGLevel15smoothChebyshevERN4occa6memoryES2_b
   fun:_ZN7MGLevel6smoothEN4occa6memoryES1_b
   fun:_ZN9parAlmond8solver_t13device_vcycleEi
   fun:_ZN9parAlmond8solver_t13device_vcycleEi
   fun:_Z22ellipticPreconditionerP10elliptic_tRN4occa6memoryES3_
   fun:_Z3pcgP10elliptic_tRN4occa6memoryES3_di
   fun:_Z13ellipticSolveP10elliptic_tRN4occa6memoryES3_
   fun:_ZN5tombo13pressureSolveEP5nrs_td
   fun:_Z10fluidSolveP5nrs_tdN4occa6memoryE
}
{
   <insert_a_suppression_name_here>
   Memcheck:Cond
   fun:_ZN4oogs6finishEN4occa6memoryEiiPKcS3_P6oogs_t
   fun:_ZN7MGLevel13smoothSchwarzERN4occa6memoryES2_b
   fun:_ZN7MGLevel27smoothChebyshevOneIterationERN4occa6memoryES2_b
   fun:_ZN7MGLevel15smoothChebyshevERN4occa6memoryES2_b
   fun:_ZN7MGLevel6smoothEN4occa6memoryES1_b
   fun:_ZN9parAlmond8solver_t13device_vcycleEi
   fun:_ZN9parAlmond8solver_t13device_vcycleEi
   fun:_Z22ellipticPreconditionerP10elliptic_tRN4occa6memoryES3_
   fun:_Z3pcgP10elliptic_tRN4occa6memoryES3_di
   fun:_Z13ellipticSolveP10elliptic_tRN4occa6memoryES3_
   fun:_ZN5tombo13pressureSolveEP5nrs_td
   fun:_Z10fluidSolveP5nrs_tdN4occa6memoryE
}
{
   <insert_a_suppression_name_here>
   Memcheck:Cond
   fun:_ZN4oogs5startEN4occa6memoryEiiPKcS3_P6oogs_t
   fun:_ZN4oogs11startFinishEN4occa6memoryEiiPKcS3_P6oogs_t
   fun:_ZN5tombo13velocitySolveEP5nrs_td
   fun:_Z10fluidSolveP5nrs_tdN4occa6memoryE
   fun:_Z7runStepP5nrs_tddi
   fun:main
}
{
   <insert_a_suppression_name_here>
   Memcheck:Cond
   fun:_ZN4oogs6finishEN4occa6memoryEiiPKcS3_P6oogs_t
   fun:_ZN4oogs11startFinishEN4occa6memoryEiiPKcS3_P6oogs_t
   fun:_ZN5tombo13velocitySolveEP5nrs_td
   fun:_Z10fluidSolveP5nrs_tdN4occa6memoryE
   fun:_Z7runStepP5nrs_tddi
   fun:main
}
{
   <insert_a_suppression_name_here>
   Memcheck:Cond
   fun:_ZN4oogs5startEN4occa6memoryEiiPKcS3_P6oogs_t
   fun:_ZN4oogs11startFinishEN4occa6memoryEiiPKcS3_P6oogs_t
   fun:_Z16ellipticOperatorP10elliptic_tRN4occa6memoryES3_PKc
   fun:operator()
   fun:_ZN18ResidualProjection6matvecERN4occa6memoryEiS2_i
   fun:_ZN18ResidualProjection21computePostProjectionERN4occa6memoryE
   fun:_Z13ellipticSolveP10elliptic_tRN4occa6memoryES3_
   fun:_ZN5tombo13pressureSolveEP5nrs_td
   fun:_Z10fluidSolveP5nrs_tdN4occa6memoryE
   fun:_Z7runStepP5nrs_tddi
   fun:main
}
{
   <insert_a_suppression_name_here>
   Memcheck:Cond
   fun:_ZN4oogs6finishEN4occa6memoryEiiPKcS3_P6oogs_t
   fun:_ZN4oogs11startFinishEN4occa6memoryEiiPKcS3_P6oogs_t
   fun:_Z16ellipticOperatorP10elliptic_tRN4occa6memoryES3_PKc
   fun:operator()
   fun:_ZN18ResidualProjection6matvecERN4occa6memoryEiS2_i
   fun:_ZN18ResidualProjection21computePostProjectionERN4occa6memoryE
   fun:_Z13ellipticSolveP10elliptic_tRN4occa6memoryES3_
   fun:_ZN5tombo13pressureSolveEP5nrs_td
   fun:_Z10fluidSolveP5nrs_tdN4occa6memoryE
   fun:_Z7runStepP5nrs_tddi
   fun:main
}
{
   <insert_a_suppression_name_here>
   Memcheck:Cond
   fun:ompi_fortran_string_f2c
   fun:PMPI_FILE_OPEN
   fun:byte_open_mpi_
   fun:mfo_open_files_
   fun:mfo_outfld_
   fun:outfld_
   fun:nekf_outfld_
   fun:_Z10nek_outfldPKcdiiRN4occa6memoryES3_S3_i
   fun:_Z8writeFldP5nrs_tdi
   fun:main
}
